; Function Attrs: mustprogress nofree norecurse nosync nounwind willreturn memory(read, inaccessiblemem: none) uwtable
define noundef zeroext i1 @_ZN32pxrInternal_v0_24__pxrReserved__eqERKNS_19HgiVertexBufferDescES2_(ptr nocapture noundef nonnull readonly align 8 dereferenceable(40) %0, ptr nocapture noundef nonnull readonly align 8 dereferenceable(40) %1) local_unnamed_addr #2 {
  %3 = load i32, ptr %0, align 8
  %4 = load i32, ptr %1, align 8
  %5 = icmp eq i32 %3, %4
  br i1 %5, label %6, label %_ZSteqIN32pxrInternal_v0_24__pxrReserved__22HgiVertexAttributeDescESaIS1_EEbRKSt6vectorIT_T0_ES8_.exit.thread

6:                                                ; preds = %2
  %7 = getelementptr inbounds nuw i8, ptr %0, i64 8
  %8 = getelementptr inbounds nuw i8, ptr %1, i64 8
  %9 = getelementptr inbounds i8, ptr %0, i64 16
  %10 = load ptr, ptr %9, align 8
  %11 = load ptr, ptr %7, align 8
  %12 = ptrtoint ptr %10 to i64
  %13 = ptrtoint ptr %11 to i64
  %14 = sub i64 %12, %13
  %15 = getelementptr inbounds i8, ptr %1, i64 16
  %16 = load ptr, ptr %15, align 8
  %17 = load ptr, ptr %8, align 8
  %18 = ptrtoint ptr %16 to i64
  %19 = ptrtoint ptr %17 to i64
  %20 = sub i64 %18, %19
  %21 = icmp eq i64 %14, %20
  br i1 %21, label %22, label %_ZSteqIN32pxrInternal_v0_24__pxrReserved__22HgiVertexAttributeDescESaIS1_EEbRKSt6vectorIT_T0_ES8_.exit.thread

22:                                               ; preds = %6
  %.not9.i.i.i.i.i = icmp eq ptr %11, %10
  br i1 %.not9.i.i.i.i.i, label %_ZSteqIN32pxrInternal_v0_24__pxrReserved__22HgiVertexAttributeDescESaIS1_EEbRKSt6vectorIT_T0_ES8_.exit, label %.lr.ph.i.i.i.i.i

.lr.ph.i.i.i.i.i:                                 ; preds = %22, %37
  %.011.i.i.i.i.i = phi ptr [ %39, %37 ], [ %17, %22 ]
  %.0810.i.i.i.i.i = phi ptr [ %38, %37 ], [ %11, %22 ]
  %23 = load i32, ptr %.0810.i.i.i.i.i, align 4
  %24 = load i32, ptr %.011.i.i.i.i.i, align 4
  %25 = icmp eq i32 %23, %24
  br i1 %25, label %26, label %_ZSteqIN32pxrInternal_v0_24__pxrReserved__22HgiVertexAttributeDescESaIS1_EEbRKSt6vectorIT_T0_ES8_.exit.thread

26:                                               ; preds = %.lr.ph.i.i.i.i.i
  %27 = getelementptr inbounds nuw i8, ptr %.0810.i.i.i.i.i, i64 4
  %28 = load i32, ptr %27, align 4
  %29 = getelementptr inbounds nuw i8, ptr %.011.i.i.i.i.i, i64 4
  %30 = load i32, ptr %29, align 4
  %31 = icmp eq i32 %28, %30
  br i1 %31, label %_ZN32pxrInternal_v0_24__pxrReserved__eqERKNS_22HgiVertexAttributeDescES2_.exit.i.i.i.i.i, label %_ZSteqIN32pxrInternal_v0_24__pxrReserved__22HgiVertexAttributeDescESaIS1_EEbRKSt6vectorIT_T0_ES8_.exit.thread

_ZN32pxrInternal_v0_24__pxrReserved__eqERKNS_22HgiVertexAttributeDescES2_.exit.i.i.i.i.i: ; preds = %26
  %32 = getelementptr inbounds nuw i8, ptr %.0810.i.i.i.i.i, i64 8
  %33 = load i32, ptr %32, align 4
  %34 = getelementptr inbounds nuw i8, ptr %.011.i.i.i.i.i, i64 8
  %35 = load i32, ptr %34, align 4
  %36 = icmp eq i32 %33, %35
  br i1 %36, label %37, label %_ZSteqIN32pxrInternal_v0_24__pxrReserved__22HgiVertexAttributeDescESaIS1_EEbRKSt6vectorIT_T0_ES8_.exit.thread

37:                                               ; preds = %_ZN32pxrInternal_v0_24__pxrReserved__eqERKNS_22HgiVertexAttributeDescES2_.exit.i.i.i.i.i
  %38 = getelementptr inbounds i8, ptr %.0810.i.i.i.i.i, i64 12
  %39 = getelementptr inbounds i8, ptr %.011.i.i.i.i.i, i64 12
  %.not.i.i.i.i.i = icmp eq ptr %38, %10
  br i1 %.not.i.i.i.i.i, label %_ZSteqIN32pxrInternal_v0_24__pxrReserved__22HgiVertexAttributeDescESaIS1_EEbRKSt6vectorIT_T0_ES8_.exit, label %.lr.ph.i.i.i.i.i, !llvm.loop !4

_ZSteqIN32pxrInternal_v0_24__pxrReserved__22HgiVertexAttributeDescESaIS1_EEbRKSt6vectorIT_T0_ES8_.exit: ; preds = %37, %22
  %40 = getelementptr inbounds nuw i8, ptr %0, i64 32
  %41 = load i32, ptr %40, align 8
  %42 = getelementptr inbounds nuw i8, ptr %1, i64 32
  %43 = load i32, ptr %42, align 8
  %44 = icmp eq i32 %41, %43
  br i1 %44, label %45, label %_ZSteqIN32pxrInternal_v0_24__pxrReserved__22HgiVertexAttributeDescESaIS1_EEbRKSt6vectorIT_T0_ES8_.exit.thread

45:                                               ; preds = %_ZSteqIN32pxrInternal_v0_24__pxrReserved__22HgiVertexAttributeDescESaIS1_EEbRKSt6vectorIT_T0_ES8_.exit
  %46 = getelementptr inbounds nuw i8, ptr %0, i64 36
  %47 = load i32, ptr %46, align 4
  %48 = getelementptr inbounds nuw i8, ptr %1, i64 36
  %49 = load i32, ptr %48, align 4
  %50 = icmp eq i32 %47, %49
  br label %_ZSteqIN32pxrInternal_v0_24__pxrReserved__22HgiVertexAttributeDescESaIS1_EEbRKSt6vectorIT_T0_ES8_.exit.thread

_ZSteqIN32pxrInternal_v0_24__pxrReserved__22HgiVertexAttributeDescESaIS1_EEbRKSt6vectorIT_T0_ES8_.exit.thread: ; preds = %_ZN32pxrInternal_v0_24__pxrReserved__eqERKNS_22HgiVertexAttributeDescES2_.exit.i.i.i.i.i, %26, %.lr.ph.i.i.i.i.i, %6, %45, %_ZSteqIN32pxrInternal_v0_24__pxrReserved__22HgiVertexAttributeDescESaIS1_EEbRKSt6vectorIT_T0_ES8_.exit, %2
  %51 = phi i1 [ false, %_ZSteqIN32pxrInternal_v0_24__pxrReserved__22HgiVertexAttributeDescESaIS1_EEbRKSt6vectorIT_T0_ES8_.exit ], [ false, %2 ], [ %50, %45 ], [ false, %6 ], [ false, %.lr.ph.i.i.i.i.i ], [ false, %26 ], [ false, %_ZN32pxrInternal_v0_24__pxrReserved__eqERKNS_22HgiVertexAttributeDescES2_.exit.i.i.i.i.i ]
  ret i1 %51
}